target datalayout = "e-m:e-p270:32:32-p271:32:32-p272:64:64-i64:64-i128:128-f80:128-n8:16:32:64-S128"
target triple = "x86_64-pc-linux-gnu"

%struct.GetBitContext = type { ptr, ptr, i32, i32, i32 }
%struct.RV34DecContext = type { %struct.MpegEncContext, %struct.RV34DSPContext, ptr, ptr, i32, ptr, ptr, ptr, %struct.H264PredContext, %struct.SliceInfo, ptr, i32, i32, i32, i32, [4 x [2 x i32]], i32, i32, i32, i32, i32, i32, i32, i32, i32, i32, i32, i32, ptr, ptr, ptr, [12 x i32], [2 x ptr], [4 x ptr], ptr, ptr, ptr, ptr, ptr }
%struct.MpegEncContext = type { ptr, i32, i32, i32, [12 x i32], i32, %struct.ScanTable, %struct.ScanTable, [64 x i8], [64 x i8], ptr, ptr, i32, i32, i32, i32, i32, i32, i32, i32, i32, i32, i32, i32, i32, i32, i32, i32, i32, i32, i32, i32, i64, i64, ptr, %struct.BufferPoolContext, i32, i32, %union.anon.0, i32, %struct.MPVWorkPicture, %struct.MPVWorkPicture, %struct.MPVWorkPicture, i32, [3 x i32], ptr, [3 x ptr], ptr, ptr, ptr, ptr, ptr, ptr, [3 x ptr], i32, ptr, ptr, ptr, ptr, %struct.ScratchpadContext, i32, i32, i32, i32, i32, i32, %struct.BlockDSPContext, %struct.H264ChromaContext, %struct.HpelDSPContext, %struct.IDCTDSPContext, %struct.QpelDSPContext, %struct.VideoDSPContext, %struct.H263DSPContext, ptr, [2 x [2 x ptr]], i32, i32, [2 x [4 x [2 x i32]]], [2 x [2 x i32]], [2 x [2 x [2 x i32]]], [2 x [64 x i16]], i32, i32, i32, i32, i32, [6 x i32], [6 x i32], [3 x ptr], ptr, [64 x i16], [64 x i16], [64 x i16], [64 x i16], i32, i32, %struct.GetBitContext, i32, i32, i32, i32, i32, i32, i32, i32, i32, i32, i32, i32, i32, i32, i32, i64, i64, i16, i16, i16, i16, i32, i32, i32, i32, i32, i32, i32, i32, i32, [3 x i32], i32, i32, i32, i32, i32, i32, %struct.GetBitContext, i32, [2 x [2 x i32]], i32, i32, i32, i32, i32, i32, i32, i32, i32, i32, i32, i32, i32, i32, [2 x i32], i32, i32, ptr, ptr, ptr, ptr, ptr, i32, i32, %struct.ERContext }
%struct.ScanTable = type { ptr, [64 x i8], [64 x i8] }
%struct.BufferPoolContext = type { ptr, ptr, ptr, ptr, ptr, i32, i32, i32 }
%union.anon.0 = type { [32 x ptr] }
%struct.MPVWorkPicture = type { [3 x ptr], [3 x i64], ptr, ptr, [2 x ptr], ptr, ptr, [2 x ptr], i32 }
%struct.ScratchpadContext = type { ptr, ptr, %union.anon.1, i32 }
%union.anon.1 = type { ptr }
%struct.BlockDSPContext = type { ptr, ptr, [2 x ptr] }
%struct.H264ChromaContext = type { [4 x ptr], [4 x ptr] }
%struct.HpelDSPContext = type { [4 x [4 x ptr]], [4 x [4 x ptr]], [4 x [4 x ptr]], [4 x ptr] }
%struct.IDCTDSPContext = type { ptr, ptr, ptr, ptr, ptr, ptr, [64 x i8], i32, i32 }
%struct.QpelDSPContext = type { [2 x [16 x ptr]], [2 x [16 x ptr]], [2 x [16 x ptr]] }
%struct.VideoDSPContext = type { ptr, ptr }
%struct.H263DSPContext = type { ptr, ptr }
%struct.ERContext = type { ptr, ptr, i32, ptr, i32, i32, i32, i64, i64, i32, i32, ptr, ptr, [3 x ptr], ptr, ptr, [2 x [4 x [2 x i32]]], %struct.ERPicture, %struct.ERPicture, %struct.ERPicture, [2 x ptr], [2 x ptr], i16, i16, i32, i32, ptr, ptr }
%struct.ERPicture = type { ptr, ptr, ptr, [2 x ptr], [2 x ptr], ptr, i32 }
%struct.RV34DSPContext = type { [4 x [16 x ptr]], [4 x [16 x ptr]], [3 x ptr], [3 x ptr], [2 x [2 x ptr]], ptr, ptr, ptr, ptr, [2 x ptr], [2 x ptr], [2 x ptr] }
%struct.H264PredContext = type { [15 x ptr], [12 x ptr], [11 x ptr], [9 x ptr], [2 x ptr], [2 x ptr], [2 x ptr], [3 x ptr], [3 x ptr] }
%struct.SliceInfo = type { i32, i32, i32, i32, i32, i32, i32, i32 }

; Function Attrs: nounwind uwtable
define internal void @rv4_weight(ptr noundef %0) #0 {
  %2 = alloca ptr, align 8
  store ptr %0, ptr %2, align 8, !tbaa !41
  %3 = load ptr, ptr %2, align 8, !tbaa !41
  %4 = getelementptr inbounds nuw %struct.RV34DecContext, ptr %3, i32 0, i32 1
  %5 = getelementptr inbounds nuw %struct.RV34DSPContext, ptr %4, i32 0, i32 4
  %6 = load ptr, ptr %2, align 8, !tbaa !41
  %7 = getelementptr inbounds nuw %struct.RV34DecContext, ptr %6, i32 0, i32 21
  %8 = load i32, ptr %7, align 4, !tbaa !132
  %9 = sext i32 %8 to i64
  %10 = getelementptr inbounds [2 x [2 x ptr]], ptr %5, i64 0, i64 %9
  %11 = getelementptr inbounds [2 x ptr], ptr %10, i64 0, i64 0
  %12 = load ptr, ptr %11, align 8, !tbaa !192
  %13 = load ptr, ptr %2, align 8, !tbaa !41
  %14 = getelementptr inbounds nuw %struct.RV34DecContext, ptr %13, i32 0, i32 0
  %15 = getelementptr inbounds nuw %struct.MpegEncContext, ptr %14, i32 0, i32 88
  %16 = getelementptr inbounds [3 x ptr], ptr %15, i64 0, i64 0
  %17 = load ptr, ptr %16, align 8, !tbaa !101
  %18 = load ptr, ptr %2, align 8, !tbaa !41
  %19 = getelementptr inbounds nuw %struct.RV34DecContext, ptr %18, i32 0, i32 32
  %20 = getelementptr inbounds [2 x ptr], ptr %19, i64 0, i64 0
  %21 = load ptr, ptr %20, align 8, !tbaa !101
  %22 = load ptr, ptr %2, align 8, !tbaa !41
  %23 = getelementptr inbounds nuw %struct.RV34DecContext, ptr %22, i32 0, i32 32
  %24 = getelementptr inbounds [2 x ptr], ptr %23, i64 0, i64 1
  %25 = load ptr, ptr %24, align 8, !tbaa !101
  %26 = load ptr, ptr %2, align 8, !tbaa !41
  %27 = getelementptr inbounds nuw %struct.RV34DecContext, ptr %26, i32 0, i32 22
  %28 = load i32, ptr %27, align 8, !tbaa !129
  %29 = load ptr, ptr %2, align 8, !tbaa !41
  %30 = getelementptr inbounds nuw %struct.RV34DecContext, ptr %29, i32 0, i32 23
  %31 = load i32, ptr %30, align 4, !tbaa !128
  %32 = load ptr, ptr %2, align 8, !tbaa !41
  %33 = getelementptr inbounds nuw %struct.RV34DecContext, ptr %32, i32 0, i32 0
  %34 = getelementptr inbounds nuw %struct.MpegEncContext, ptr %33, i32 0, i32 32
  %35 = load i64, ptr %34, align 8, !tbaa !244
  call void %12(ptr noundef %17, ptr noundef %21, ptr noundef %25, i32 noundef %28, i32 noundef %31, i64 noundef %35)
  %36 = load ptr, ptr %2, align 8, !tbaa !41
  %37 = getelementptr inbounds nuw %struct.RV34DecContext, ptr %36, i32 0, i32 1
  %38 = getelementptr inbounds nuw %struct.RV34DSPContext, ptr %37, i32 0, i32 4
  %39 = load ptr, ptr %2, align 8, !tbaa !41
  %40 = getelementptr inbounds nuw %struct.RV34DecContext, ptr %39, i32 0, i32 21
  %41 = load i32, ptr %40, align 4, !tbaa !132
  %42 = sext i32 %41 to i64
  %43 = getelementptr inbounds [2 x [2 x ptr]], ptr %38, i64 0, i64 %42
  %44 = getelementptr inbounds [2 x ptr], ptr %43, i64 0, i64 1
  %45 = load ptr, ptr %44, align 8, !tbaa !192
  %46 = load ptr, ptr %2, align 8, !tbaa !41
  %47 = getelementptr inbounds nuw %struct.RV34DecContext, ptr %46, i32 0, i32 0
  %48 = getelementptr inbounds nuw %struct.MpegEncContext, ptr %47, i32 0, i32 88
  %49 = getelementptr inbounds [3 x ptr], ptr %48, i64 0, i64 1
  %50 = load ptr, ptr %49, align 8, !tbaa !101
  %51 = load ptr, ptr %2, align 8, !tbaa !41
  %52 = getelementptr inbounds nuw %struct.RV34DecContext, ptr %51, i32 0, i32 33
  %53 = getelementptr inbounds [4 x ptr], ptr %52, i64 0, i64 0
  %54 = load ptr, ptr %53, align 8, !tbaa !101
  %55 = load ptr, ptr %2, align 8, !tbaa !41
  %56 = getelementptr inbounds nuw %struct.RV34DecContext, ptr %55, i32 0, i32 33
  %57 = getelementptr inbounds [4 x ptr], ptr %56, i64 0, i64 2
  %58 = load ptr, ptr %57, align 8, !tbaa !101
  %59 = load ptr, ptr %2, align 8, !tbaa !41
  %60 = getelementptr inbounds nuw %struct.RV34DecContext, ptr %59, i32 0, i32 22
  %61 = load i32, ptr %60, align 8, !tbaa !129
  %62 = load ptr, ptr %2, align 8, !tbaa !41
  %63 = getelementptr inbounds nuw %struct.RV34DecContext, ptr %62, i32 0, i32 23
  %64 = load i32, ptr %63, align 4, !tbaa !128
  %65 = load ptr, ptr %2, align 8, !tbaa !41
  %66 = getelementptr inbounds nuw %struct.RV34DecContext, ptr %65, i32 0, i32 0
  %67 = getelementptr inbounds nuw %struct.MpegEncContext, ptr %66, i32 0, i32 33
  %68 = load i64, ptr %67, align 8, !tbaa !245
  call void %45(ptr noundef %50, ptr noundef %54, ptr noundef %58, i32 noundef %61, i32 noundef %64, i64 noundef %68)
  %69 = load ptr, ptr %2, align 8, !tbaa !41
  %70 = getelementptr inbounds nuw %struct.RV34DecContext, ptr %69, i32 0, i32 1
  %71 = getelementptr inbounds nuw %struct.RV34DSPContext, ptr %70, i32 0, i32 4
  %72 = load ptr, ptr %2, align 8, !tbaa !41
  %73 = getelementptr inbounds nuw %struct.RV34DecContext, ptr %72, i32 0, i32 21
  %74 = load i32, ptr %73, align 4, !tbaa !132
  %75 = sext i32 %74 to i64
  %76 = getelementptr inbounds [2 x [2 x ptr]], ptr %71, i64 0, i64 %75
  %77 = getelementptr inbounds [2 x ptr], ptr %76, i64 0, i64 1
  %78 = load ptr, ptr %77, align 8, !tbaa !192
  %79 = load ptr, ptr %2, align 8, !tbaa !41
  %80 = getelementptr inbounds nuw %struct.RV34DecContext, ptr %79, i32 0, i32 0
  %81 = getelementptr inbounds nuw %struct.MpegEncContext, ptr %80, i32 0, i32 88
  %82 = getelementptr inbounds [3 x ptr], ptr %81, i64 0, i64 2
  %83 = load ptr, ptr %82, align 8, !tbaa !101
  %84 = load ptr, ptr %2, align 8, !tbaa !41
  %85 = getelementptr inbounds nuw %struct.RV34DecContext, ptr %84, i32 0, i32 33
  %86 = getelementptr inbounds [4 x ptr], ptr %85, i64 0, i64 1
  %87 = load ptr, ptr %86, align 8, !tbaa !101
  %88 = load ptr, ptr %2, align 8, !tbaa !41
  %89 = getelementptr inbounds nuw %struct.RV34DecContext, ptr %88, i32 0, i32 33
  %90 = getelementptr inbounds [4 x ptr], ptr %89, i64 0, i64 3
  %91 = load ptr, ptr %90, align 8, !tbaa !101
  %92 = load ptr, ptr %2, align 8, !tbaa !41
  %93 = getelementptr inbounds nuw %struct.RV34DecContext, ptr %92, i32 0, i32 22
  %94 = load i32, ptr %93, align 8, !tbaa !129
  %95 = load ptr, ptr %2, align 8, !tbaa !41
  %96 = getelementptr inbounds nuw %struct.RV34DecContext, ptr %95, i32 0, i32 23
  %97 = load i32, ptr %96, align 4, !tbaa !128
  %98 = load ptr, ptr %2, align 8, !tbaa !41
  %99 = getelementptr inbounds nuw %struct.RV34DecContext, ptr %98, i32 0, i32 0
  %100 = getelementptr inbounds nuw %struct.MpegEncContext, ptr %99, i32 0, i32 33
  %101 = load i64, ptr %100, align 8, !tbaa !245
  call void %78(ptr noundef %83, ptr noundef %87, ptr noundef %91, i32 noundef %94, i32 noundef %97, i64 noundef %101)
  ret void
}

; Function Attrs: nounwind uwtable
define internal void @rv34_mc_2mv(ptr noundef %0, i32 noundef %1) #0 {
  %3 = alloca ptr, align 8
  %4 = alloca i32, align 4
  %5 = alloca i32, align 4
  store ptr %0, ptr %3, align 8, !tbaa !41
  store i32 %1, ptr %4, align 4, !tbaa !9
  call void @llvm.lifetime.start.p0(i64 4, ptr %5) #12
  %6 = load ptr, ptr %3, align 8, !tbaa !41
  %7 = getelementptr inbounds nuw %struct.RV34DecContext, ptr %6, i32 0, i32 16
  %8 = load i32, ptr %7, align 8, !tbaa !200
  %9 = icmp ne i32 %8, 0
  br i1 %9, label %18, label %10

10:                                               ; preds = %2
  %11 = load i32, ptr %4, align 4, !tbaa !9
  %12 = icmp ne i32 %11, 10
  br i1 %12, label %13, label %18

13:                                               ; preds = %10
  %14 = load ptr, ptr %3, align 8, !tbaa !41
  %15 = getelementptr inbounds nuw %struct.RV34DecContext, ptr %14, i32 0, i32 22
  %16 = load i32, ptr %15, align 8, !tbaa !129
  %17 = icmp ne i32 %16, 8192
  br label %18

18:                                               ; preds = %13, %10, %2
  %19 = phi i1 [ false, %10 ], [ false, %2 ], [ %17, %13 ]
  %20 = zext i1 %19 to i32
  store i32 %20, ptr %5, align 4, !tbaa !9
  %21 = load ptr, ptr %3, align 8, !tbaa !41
  %22 = load i32, ptr %4, align 4, !tbaa !9
  %23 = load ptr, ptr %3, align 8, !tbaa !41
  %24 = getelementptr inbounds nuw %struct.RV34DecContext, ptr %23, i32 0, i32 16
  %25 = load i32, ptr %24, align 8, !tbaa !200
  %26 = load i32, ptr %5, align 4, !tbaa !9
  %27 = load ptr, ptr %3, align 8, !tbaa !41
  %28 = getelementptr inbounds nuw %struct.RV34DecContext, ptr %27, i32 0, i32 1
  %29 = getelementptr inbounds nuw %struct.RV34DSPContext, ptr %28, i32 0, i32 0
  %30 = getelementptr inbounds [4 x [16 x ptr]], ptr %29, i64 0, i64 0
  %31 = load ptr, ptr %3, align 8, !tbaa !41
  %32 = getelementptr inbounds nuw %struct.RV34DecContext, ptr %31, i32 0, i32 1
  %33 = getelementptr inbounds nuw %struct.RV34DSPContext, ptr %32, i32 0, i32 2
  %34 = getelementptr inbounds [3 x ptr], ptr %33, i64 0, i64 0
  call void @rv34_mc(ptr noundef %21, i32 noundef %22, i32 noundef 0, i32 noundef 0, i32 noundef 0, i32 noundef 2, i32 noundef 2, i32 noundef 0, i32 noundef %25, i32 noundef %26, ptr noundef %30, ptr noundef %34)
  %35 = load i32, ptr %5, align 4, !tbaa !9
  %36 = icmp ne i32 %35, 0
  br i1 %36, label %51, label %37

37:                                               ; preds = %18
  %38 = load ptr, ptr %3, align 8, !tbaa !41
  %39 = load i32, ptr %4, align 4, !tbaa !9
  %40 = load ptr, ptr %3, align 8, !tbaa !41
  %41 = getelementptr inbounds nuw %struct.RV34DecContext, ptr %40, i32 0, i32 16
  %42 = load i32, ptr %41, align 8, !tbaa !200
  %43 = load ptr, ptr %3, align 8, !tbaa !41
  %44 = getelementptr inbounds nuw %struct.RV34DecContext, ptr %43, i32 0, i32 1
  %45 = getelementptr inbounds nuw %struct.RV34DSPContext, ptr %44, i32 0, i32 1
  %46 = getelementptr inbounds [4 x [16 x ptr]], ptr %45, i64 0, i64 0
  %47 = load ptr, ptr %3, align 8, !tbaa !41
  %48 = getelementptr inbounds nuw %struct.RV34DecContext, ptr %47, i32 0, i32 1
  %49 = getelementptr inbounds nuw %struct.RV34DSPContext, ptr %48, i32 0, i32 3
  %50 = getelementptr inbounds [3 x ptr], ptr %49, i64 0, i64 0
  call void @rv34_mc(ptr noundef %38, i32 noundef %39, i32 noundef 0, i32 noundef 0, i32 noundef 0, i32 noundef 2, i32 noundef 2, i32 noundef 1, i32 noundef %42, i32 noundef 0, ptr noundef %46, ptr noundef %50)
  br label %66

51:                                               ; preds = %18
  %52 = load ptr, ptr %3, align 8, !tbaa !41
  %53 = load i32, ptr %4, align 4, !tbaa !9
  %54 = load ptr, ptr %3, align 8, !tbaa !41
  %55 = getelementptr inbounds nuw %struct.RV34DecContext, ptr %54, i32 0, i32 16
  %56 = load i32, ptr %55, align 8, !tbaa !200
  %57 = load ptr, ptr %3, align 8, !tbaa !41
  %58 = getelementptr inbounds nuw %struct.RV34DecContext, ptr %57, i32 0, i32 1
  %59 = getelementptr inbounds nuw %struct.RV34DSPContext, ptr %58, i32 0, i32 0
  %60 = getelementptr inbounds [4 x [16 x ptr]], ptr %59, i64 0, i64 0
  %61 = load ptr, ptr %3, align 8, !tbaa !41
  %62 = getelementptr inbounds nuw %struct.RV34DecContext, ptr %61, i32 0, i32 1
  %63 = getelementptr inbounds nuw %struct.RV34DSPContext, ptr %62, i32 0, i32 2
  %64 = getelementptr inbounds [3 x ptr], ptr %63, i64 0, i64 0
  call void @rv34_mc(ptr noundef %52, i32 noundef %53, i32 noundef 0, i32 noundef 0, i32 noundef 0, i32 noundef 2, i32 noundef 2, i32 noundef 1, i32 noundef %56, i32 noundef 1, ptr noundef %60, ptr noundef %64)
  %65 = load ptr, ptr %3, align 8, !tbaa !41
  call void @rv4_weight(ptr noundef %65)
  br label %66

66:                                               ; preds = %51, %37
  call void @llvm.lifetime.end.p0(i64 4, ptr %5) #12
  ret void
}