; Function Attrs: nounwind uwtable
define internal fastcc void @rv34_mc_2mv(ptr noundef readonly captures(none) %0, i32 noundef %1) unnamed_addr #4 {
  %3 = getelementptr inbounds nuw i8, ptr %0, i64 6600
  %4 = load i32, ptr %3, align 8, !tbaa !154
  %5 = icmp eq i32 %4, 0
  %6 = icmp ne i32 %1, 10
  %or.cond = and i1 %6, %5
  br i1 %or.cond, label %9, label %.thread

.thread:                                          ; preds = %2
  %7 = getelementptr inbounds nuw i8, ptr %0, i64 4808
  %8 = getelementptr inbounds nuw i8, ptr %0, i64 5832
  tail call fastcc void @rv34_mc(ptr noundef nonnull %0, i32 noundef %1, i32 noundef 0, i32 noundef 0, i32 noundef 0, i32 noundef 2, i32 noundef 2, i32 noundef 0, i32 noundef %4, i32 noundef 0, ptr noundef nonnull %7, ptr noundef nonnull %8)
  br label %16

9:                                                ; preds = %2
  %10 = getelementptr inbounds nuw i8, ptr %0, i64 6624
  %11 = load i32, ptr %10, align 8, !tbaa !122
  %12 = icmp ne i32 %11, 8192
  %13 = zext i1 %12 to i32
  %14 = getelementptr inbounds nuw i8, ptr %0, i64 4808
  %15 = getelementptr inbounds nuw i8, ptr %0, i64 5832
  tail call fastcc void @rv34_mc(ptr noundef nonnull %0, i32 noundef %1, i32 noundef 0, i32 noundef 0, i32 noundef 0, i32 noundef 2, i32 noundef 2, i32 noundef 0, i32 noundef 0, i32 noundef %13, ptr noundef nonnull %14, ptr noundef nonnull %15)
  br i1 %12, label %20, label %16

16:                                               ; preds = %.thread, %9
  %17 = load i32, ptr %3, align 8, !tbaa !154
  %18 = getelementptr inbounds nuw i8, ptr %0, i64 5320
  %19 = getelementptr inbounds nuw i8, ptr %0, i64 5856
  tail call fastcc void @rv34_mc(ptr noundef nonnull %0, i32 noundef %1, i32 noundef 0, i32 noundef 0, i32 noundef 0, i32 noundef 2, i32 noundef 2, i32 noundef 1, i32 noundef %17, i32 noundef 0, ptr noundef nonnull %18, ptr noundef nonnull %19)
  br label %68

20:                                               ; preds = %9
  %21 = load i32, ptr %3, align 8, !tbaa !154
  tail call fastcc void @rv34_mc(ptr noundef nonnull %0, i32 noundef %1, i32 noundef 0, i32 noundef 0, i32 noundef 0, i32 noundef 2, i32 noundef 2, i32 noundef 1, i32 noundef %21, i32 noundef 1, ptr noundef nonnull %14, ptr noundef nonnull %15)
  %22 = getelementptr inbounds nuw i8, ptr %0, i64 5880
  %23 = getelementptr inbounds nuw i8, ptr %0, i64 6620
  %24 = load i32, ptr %23, align 4, !tbaa !125
  %25 = sext i32 %24 to i64
  %26 = getelementptr inbounds [2 x [2 x ptr]], ptr %22, i64 0, i64 %25
  %27 = load ptr, ptr %26, align 8, !tbaa !162
  %28 = getelementptr inbounds nuw i8, ptr %0, i64 3416
  %29 = load ptr, ptr %28, align 8, !tbaa !117
  %30 = getelementptr inbounds nuw i8, ptr %0, i64 6720
  %31 = load ptr, ptr %30, align 8, !tbaa !117
  %32 = getelementptr inbounds nuw i8, ptr %0, i64 6728
  %33 = load ptr, ptr %32, align 8, !tbaa !117
  %34 = load i32, ptr %10, align 8, !tbaa !122
  %35 = getelementptr inbounds nuw i8, ptr %0, i64 6628
  %36 = load i32, ptr %35, align 4, !tbaa !121
  %37 = getelementptr inbounds nuw i8, ptr %0, i64 568
  %38 = load i64, ptr %37, align 8, !tbaa !163
  tail call void %27(ptr noundef %29, ptr noundef %31, ptr noundef %33, i32 noundef %34, i32 noundef %36, i64 noundef %38) #15
  %39 = load i32, ptr %23, align 4, !tbaa !125
  %40 = sext i32 %39 to i64
  %.idx.i = shl nsw i64 %40, 4
  %41 = getelementptr i8, ptr %22, i64 %.idx.i
  %42 = getelementptr i8, ptr %41, i64 8
  %43 = load ptr, ptr %42, align 8, !tbaa !162
  %44 = getelementptr inbounds nuw i8, ptr %0, i64 3424
  %45 = load ptr, ptr %44, align 8, !tbaa !117
  %46 = getelementptr inbounds nuw i8, ptr %0, i64 6736
  %47 = load ptr, ptr %46, align 8, !tbaa !117
  %48 = getelementptr inbounds nuw i8, ptr %0, i64 6752
  %49 = load ptr, ptr %48, align 8, !tbaa !117
  %50 = load i32, ptr %10, align 8, !tbaa !122
  %51 = load i32, ptr %35, align 4, !tbaa !121
  %52 = getelementptr inbounds nuw i8, ptr %0, i64 576
  %53 = load i64, ptr %52, align 8, !tbaa !164
  tail call void %43(ptr noundef %45, ptr noundef %47, ptr noundef %49, i32 noundef %50, i32 noundef %51, i64 noundef %53) #15
  %54 = load i32, ptr %23, align 4, !tbaa !125
  %55 = sext i32 %54 to i64
  %.idx24.i = shl nsw i64 %55, 4
  %56 = getelementptr i8, ptr %22, i64 %.idx24.i
  %57 = getelementptr i8, ptr %56, i64 8
  %58 = load ptr, ptr %57, align 8, !tbaa !162
  %59 = getelementptr inbounds nuw i8, ptr %0, i64 3432
  %60 = load ptr, ptr %59, align 8, !tbaa !117
  %61 = getelementptr inbounds nuw i8, ptr %0, i64 6744
  %62 = load ptr, ptr %61, align 8, !tbaa !117
  %63 = getelementptr inbounds nuw i8, ptr %0, i64 6760
  %64 = load ptr, ptr %63, align 8, !tbaa !117
  %65 = load i32, ptr %10, align 8, !tbaa !122
  %66 = load i32, ptr %35, align 4, !tbaa !121
  %67 = load i64, ptr %52, align 8, !tbaa !164
  tail call void %58(ptr noundef %60, ptr noundef %62, ptr noundef %64, i32 noundef %65, i32 noundef %66, i64 noundef %67) #15
  br label %68

68:                                               ; preds = %20, %16
  ret void
}